target datalayout = "e-m:e-p270:32:32-p271:32:32-p272:64:64-i64:64-i128:128-f80:128-n8:16:32:64-S128"
target triple = "x86_64-pc-linux-gnu"

%"class.Gluco2::vec.0" = type { ptr, i32, i32 }
%"struct.Gluco2::Lit" = type { i32 }
%"class.Gluco2::Solver" = type { ptr, i32, ptr, ptr, i32, i8, ptr, i64, %"class.Gluco2::vec", %"class.Gluco2::vec.0", i32, %"class.Gluco2::vec.1", %"class.Gluco2::vec.0", i32, i32, i32, double, double, double, double, i32, i32, i32, i32, i32, i32, double, double, double, double, i32, i32, i8, i8, double, ptr, i8, i64, i64, i64, i64, i64, i64, i64, i64, i64, i64, i64, i64, i64, i64, i64, i64, i64, i64, i64, i64, i64, i64, i32, i8, double, %"class.Gluco2::vec.2", double, %"class.Gluco2::OccLists", %"class.Gluco2::OccLists", %"class.Gluco2::vec.5", %"class.Gluco2::vec.5", %"class.Gluco2::vec.1", %"class.Gluco2::vec.4", %"class.Gluco2::vec.4", %"class.Gluco2::vec.0", %"class.Gluco2::vec", %"class.Gluco2::vec", %"class.Gluco2::vec.6", i32, i32, i64, %"class.Gluco2::vec.0", %"class.Gluco2::Heap", double, i8, %"class.Gluco2::vec.5", %"class.Gluco2::vec.0", %"class.Gluco2::ClauseAllocator", i32, %"class.Gluco2::bqueue", %"class.Gluco2::bqueue", float, i32, %"class.Gluco2::vec.4", %"class.Gluco2::vec.0", %"class.Gluco2::vec.0", %"class.Gluco2::vec.0", i32, double, double, i32, i64, i64, i8, i32, i32, double, double, i32, i32, %"class.Gluco2::vec", %"class.Gluco2::vec", i8, %"class.Gluco2::vec.7", %"class.Gluco2::vec.5", %"class.Gluco2::vec.0", %"class.Gluco2::vec.0", i32, i32, i32, i32, %"class.Gluco2::Heap2", %"class.Gluco2::vec", %"class.Gluco2::vec", i32, %"class.Gluco2::vec", %"class.Gluco2::vec.0" }
%"class.Gluco2::vec.2" = type { ptr, i32, i32 }
%"class.Gluco2::OccLists" = type { %"class.Gluco2::vec.3", %"class.Gluco2::vec.4", %"class.Gluco2::vec.0", %"struct.Gluco2::Solver::WatcherDeleted" }
%"class.Gluco2::vec.3" = type { ptr, i32, i32 }
%"struct.Gluco2::Solver::WatcherDeleted" = type { ptr }
%"class.Gluco2::vec.1" = type { ptr, i32, i32 }
%"class.Gluco2::vec.6" = type { ptr, i32, i32 }
%"class.Gluco2::Heap" = type { %"struct.Gluco2::Solver::VarOrderLt", %"class.Gluco2::vec", %"class.Gluco2::vec" }
%"struct.Gluco2::Solver::VarOrderLt" = type { ptr }
%"class.Gluco2::ClauseAllocator" = type { %"class.Gluco2::RegionAllocator.base", i8, [3 x i8] }
%"class.Gluco2::RegionAllocator.base" = type <{ ptr, i32, i32, i32 }>
%"class.Gluco2::bqueue" = type { %"class.Gluco2::vec.5", i32, i32, i64, i32, i32, i8, double, double }
%"class.Gluco2::vec.4" = type { ptr, i32, i32 }
%"class.Gluco2::vec.7" = type { ptr, i32, i32 }
%"class.Gluco2::vec.5" = type { ptr, i32, i32 }
%"class.Gluco2::Heap2" = type { %"struct.Gluco2::Solver::JustOrderLt2", %"class.Gluco2::vec.8", %"class.Gluco2::vec" }
%"struct.Gluco2::Solver::JustOrderLt2" = type { ptr }
%"class.Gluco2::vec.8" = type { ptr, i32, i32 }
%"class.Gluco2::vec" = type { ptr, i32, i32 }
%"class.Gluco2::lbool" = type { i8 }

; Function Attrs: inlinehint mustprogress nounwind uwtable
define linkonce_odr noundef i32 @_ZN6Gluco23vecINS_3LitEE4imaxEii(i32 noundef %0, i32 noundef %1) #4 comdat align 2 {
  %3 = alloca i32, align 4
  %4 = alloca i32, align 4
  %5 = alloca i32, align 4
  store i32 %0, ptr %3, align 4, !tbaa !12
  store i32 %1, ptr %4, align 4, !tbaa !12
  call void @llvm.lifetime.start.p0(i64 4, ptr %5) #15
  %6 = load i32, ptr %4, align 4, !tbaa !12
  %7 = load i32, ptr %3, align 4, !tbaa !12
  %8 = sub nsw i32 %6, %7
  %9 = ashr i32 %8, 31
  store i32 %9, ptr %5, align 4, !tbaa !12
  %10 = load i32, ptr %3, align 4, !tbaa !12
  %11 = load i32, ptr %5, align 4, !tbaa !12
  %12 = and i32 %10, %11
  %13 = load i32, ptr %4, align 4, !tbaa !12
  %14 = load i32, ptr %5, align 4, !tbaa !12
  %15 = xor i32 %14, -1
  %16 = and i32 %13, %15
  %17 = add nsw i32 %12, %16
  call void @llvm.lifetime.end.p0(i64 4, ptr %5) #15
  ret i32 %17
}

; Function Attrs: mustprogress nounwind uwtable
define linkonce_odr void @_ZN6Gluco23vecINS_3LitEE8capacityEi(ptr noundef nonnull align 8 dereferenceable(16) %0, i32 noundef %1) #0 comdat align 2 {
  %3 = alloca ptr, align 8
  %4 = alloca i32, align 4
  %5 = alloca i32, align 4
  store ptr %0, ptr %3, align 8, !tbaa !19
  store i32 %1, ptr %4, align 4, !tbaa !12
  %6 = load ptr, ptr %3, align 8
  %7 = getelementptr inbounds nuw %"class.Gluco2::vec.0", ptr %6, i32 0, i32 2
  %8 = load i32, ptr %7, align 4, !tbaa !25
  %9 = load i32, ptr %4, align 4, !tbaa !12
  %10 = icmp sge i32 %8, %9
  br i1 %10, label %11, label %12

11:                                               ; preds = %2
  br label %48

12:                                               ; preds = %2
  call void @llvm.lifetime.start.p0(i64 4, ptr %5) #15
  %13 = load i32, ptr %4, align 4, !tbaa !12
  %14 = getelementptr inbounds nuw %"class.Gluco2::vec.0", ptr %6, i32 0, i32 2
  %15 = load i32, ptr %14, align 4, !tbaa !25
  %16 = sub nsw i32 %13, %15
  %17 = add nsw i32 %16, 1
  %18 = and i32 %17, -2
  %19 = getelementptr inbounds nuw %"class.Gluco2::vec.0", ptr %6, i32 0, i32 2
  %20 = load i32, ptr %19, align 4, !tbaa !25
  %21 = ashr i32 %20, 1
  %22 = add nsw i32 %21, 2
  %23 = and i32 %22, -2
  %24 = call noundef i32 @_ZN6Gluco23vecINS_3LitEE4imaxEii(i32 noundef %18, i32 noundef %23)
  store i32 %24, ptr %5, align 4, !tbaa !12
  %25 = load i32, ptr %5, align 4, !tbaa !12
  %26 = getelementptr inbounds nuw %"class.Gluco2::vec.0", ptr %6, i32 0, i32 2
  %27 = load i32, ptr %26, align 4, !tbaa !25
  %28 = sub nsw i32 2147483647, %27
  %29 = icmp sgt i32 %25, %28
  br i1 %29, label %46, label %30

30:                                               ; preds = %12
  %31 = getelementptr inbounds nuw %"class.Gluco2::vec.0", ptr %6, i32 0, i32 0
  %32 = load ptr, ptr %31, align 8, !tbaa !21
  %33 = load i32, ptr %5, align 4, !tbaa !12
  %34 = getelementptr inbounds nuw %"class.Gluco2::vec.0", ptr %6, i32 0, i32 2
  %35 = load i32, ptr %34, align 4, !tbaa !25
  %36 = add nsw i32 %35, %33
  store i32 %36, ptr %34, align 4, !tbaa !25
  %37 = sext i32 %36 to i64
  %38 = mul i64 %37, 4
  %39 = call ptr @realloc(ptr noundef %32, i64 noundef %38) #19
  %40 = getelementptr inbounds nuw %"class.Gluco2::vec.0", ptr %6, i32 0, i32 0
  store ptr %39, ptr %40, align 8, !tbaa !21
  %41 = icmp eq ptr %39, null
  br i1 %41, label %42, label %47

42:                                               ; preds = %30
  %43 = call ptr @__errno_location() #20
  %44 = load i32, ptr %43, align 4, !tbaa !12
  %45 = icmp eq i32 %44, 12
  br i1 %45, label %46, label %47

46:                                               ; preds = %42, %12
  call void @_ZN6Gluco2L19fatal_out_of_memoryEv()
  br label %47

47:                                               ; preds = %46, %42, %30
  call void @llvm.lifetime.end.p0(i64 4, ptr %5) #15
  br label %48

48:                                               ; preds = %47, %11
  ret void
}

; Function Attrs: mustprogress nounwind uwtable
define linkonce_odr noundef zeroext i1 @_ZNK6Gluco25lbooleqES0_(ptr noundef nonnull align 1 dereferenceable(1) %0, i8 %1) #0 comdat align 2 {
  %3 = alloca %"class.Gluco2::lbool", align 1
  %4 = alloca ptr, align 8
  %5 = getelementptr inbounds nuw %"class.Gluco2::lbool", ptr %3, i32 0, i32 0
  store i8 %1, ptr %5, align 1
  store ptr %0, ptr %4, align 8, !tbaa !74
  %6 = load ptr, ptr %4, align 8
  %7 = getelementptr inbounds nuw %"class.Gluco2::lbool", ptr %3, i32 0, i32 0
  %8 = load i8, ptr %7, align 1, !tbaa !75
  %9 = zext i8 %8 to i32
  %10 = and i32 %9, 2
  %11 = getelementptr inbounds nuw %"class.Gluco2::lbool", ptr %6, i32 0, i32 0
  %12 = load i8, ptr %11, align 1, !tbaa !75
  %13 = zext i8 %12 to i32
  %14 = and i32 %13, 2
  %15 = and i32 %10, %14
  %16 = getelementptr inbounds nuw %"class.Gluco2::lbool", ptr %3, i32 0, i32 0
  %17 = load i8, ptr %16, align 1, !tbaa !75
  %18 = zext i8 %17 to i32
  %19 = and i32 %18, 2
  %20 = icmp ne i32 %19, 0
  %21 = xor i1 %20, true
  %22 = zext i1 %21 to i32
  %23 = getelementptr inbounds nuw %"class.Gluco2::lbool", ptr %6, i32 0, i32 0
  %24 = load i8, ptr %23, align 1, !tbaa !75
  %25 = zext i8 %24 to i32
  %26 = getelementptr inbounds nuw %"class.Gluco2::lbool", ptr %3, i32 0, i32 0
  %27 = load i8, ptr %26, align 1, !tbaa !75
  %28 = zext i8 %27 to i32
  %29 = icmp eq i32 %25, %28
  %30 = zext i1 %29 to i32
  %31 = and i32 %22, %30
  %32 = or i32 %15, %31
  %33 = icmp ne i32 %32, 0
  ret i1 %33
}

; Function Attrs: mustprogress nounwind uwtable
define linkonce_odr void @_ZN6Gluco25lboolC2Eh(ptr noundef nonnull align 1 dereferenceable(1) %0, i8 noundef zeroext %1) unnamed_addr #0 comdat align 2 {
  %3 = alloca ptr, align 8
  %4 = alloca i8, align 1
  store ptr %0, ptr %3, align 8, !tbaa !74
  store i8 %1, ptr %4, align 1, !tbaa !77
  %5 = load ptr, ptr %3, align 8
  %6 = getelementptr inbounds nuw %"class.Gluco2::lbool", ptr %5, i32 0, i32 0
  %7 = load i8, ptr %4, align 1, !tbaa !77
  store i8 %7, ptr %6, align 1, !tbaa !75
  ret void
}

; Function Attrs: mustprogress nounwind uwtable
define linkonce_odr void @_ZN6Gluco23vecINS_3LitEE4pushERKS1_(ptr noundef nonnull align 8 dereferenceable(16) %0, ptr noundef nonnull align 4 dereferenceable(4) %1) #0 comdat align 2 {
  %3 = alloca ptr, align 8
  %4 = alloca ptr, align 8
  store ptr %0, ptr %3, align 8, !tbaa !19
  store ptr %1, ptr %4, align 8, !tbaa !28
  %5 = load ptr, ptr %3, align 8
  %6 = getelementptr inbounds nuw %"class.Gluco2::vec.0", ptr %5, i32 0, i32 1
  %7 = load i32, ptr %6, align 8, !tbaa !24
  %8 = getelementptr inbounds nuw %"class.Gluco2::vec.0", ptr %5, i32 0, i32 2
  %9 = load i32, ptr %8, align 4, !tbaa !25
  %10 = icmp eq i32 %7, %9
  br i1 %10, label %11, label %15

11:                                               ; preds = %2
  %12 = getelementptr inbounds nuw %"class.Gluco2::vec.0", ptr %5, i32 0, i32 1
  %13 = load i32, ptr %12, align 8, !tbaa !24
  %14 = add nsw i32 %13, 1
  call void @_ZN6Gluco23vecINS_3LitEE8capacityEi(ptr noundef nonnull align 8 dereferenceable(16) %5, i32 noundef %14)
  br label %15

15:                                               ; preds = %11, %2
  %16 = load ptr, ptr %4, align 8, !tbaa !28
  %17 = getelementptr inbounds nuw %"class.Gluco2::vec.0", ptr %5, i32 0, i32 0
  %18 = load ptr, ptr %17, align 8, !tbaa !21
  %19 = getelementptr inbounds nuw %"class.Gluco2::vec.0", ptr %5, i32 0, i32 1
  %20 = load i32, ptr %19, align 8, !tbaa !24
  %21 = add nsw i32 %20, 1
  store i32 %21, ptr %19, align 8, !tbaa !24
  %22 = sext i32 %20 to i64
  %23 = getelementptr inbounds %"struct.Gluco2::Lit", ptr %18, i64 %22
  call void @llvm.memcpy.p0.p0.i64(ptr align 4 %23, ptr align 4 %16, i64 4, i1 false), !tbaa.struct !29
  ret void
}

; Function Attrs: inlinehint mustprogress nounwind uwtable
define linkonce_odr i32 @_ZN6Gluco25toLitEi(i32 noundef %0) #4 comdat {
  %2 = alloca %"struct.Gluco2::Lit", align 4
  %3 = alloca i32, align 4
  store i32 %0, ptr %3, align 4, !tbaa !12
  %4 = load i32, ptr %3, align 4, !tbaa !12
  %5 = getelementptr inbounds nuw %"struct.Gluco2::Lit", ptr %2, i32 0, i32 0
  store i32 %4, ptr %5, align 4, !tbaa !16
  %6 = getelementptr inbounds nuw %"struct.Gluco2::Lit", ptr %2, i32 0, i32 0
  %7 = load i32, ptr %6, align 4
  ret i32 %7
}

; Function Attrs: mustprogress nounwind uwtable
define linkonce_odr void @_ZN6Gluco23vecINS_3LitEE5clearEb(ptr noundef nonnull align 8 dereferenceable(16) %0, i1 noundef zeroext %1) #0 comdat align 2 {
  %3 = alloca ptr, align 8
  %4 = alloca i8, align 1
  %5 = alloca i32, align 4
  store ptr %0, ptr %3, align 8, !tbaa !19
  %6 = zext i1 %1 to i8
  store i8 %6, ptr %4, align 1, !tbaa !67
  %7 = load ptr, ptr %3, align 8
  %8 = getelementptr inbounds nuw %"class.Gluco2::vec.0", ptr %7, i32 0, i32 0
  %9 = load ptr, ptr %8, align 8, !tbaa !21
  %10 = icmp ne ptr %9, null
  br i1 %10, label %11, label %32

11:                                               ; preds = %2
  call void @llvm.lifetime.start.p0(i64 4, ptr %5) #15
  store i32 0, ptr %5, align 4, !tbaa !12
  br label %12

12:                                               ; preds = %19, %11
  %13 = load i32, ptr %5, align 4, !tbaa !12
  %14 = getelementptr inbounds nuw %"class.Gluco2::vec.0", ptr %7, i32 0, i32 1
  %15 = load i32, ptr %14, align 8, !tbaa !24
  %16 = icmp slt i32 %13, %15
  br i1 %16, label %18, label %17

17:                                               ; preds = %12
  call void @llvm.lifetime.end.p0(i64 4, ptr %5) #15
  br label %22

18:                                               ; preds = %12
  br label %19

19:                                               ; preds = %18
  %20 = load i32, ptr %5, align 4, !tbaa !12
  %21 = add nsw i32 %20, 1
  store i32 %21, ptr %5, align 4, !tbaa !12
  br label %12, !llvm.loop !131

22:                                               ; preds = %17
  %23 = getelementptr inbounds nuw %"class.Gluco2::vec.0", ptr %7, i32 0, i32 1
  store i32 0, ptr %23, align 8, !tbaa !24
  %24 = load i8, ptr %4, align 1, !tbaa !67, !range !69, !noundef !70
  %25 = trunc i8 %24 to i1
  br i1 %25, label %26, label %31

26:                                               ; preds = %22
  %27 = getelementptr inbounds nuw %"class.Gluco2::vec.0", ptr %7, i32 0, i32 0
  %28 = load ptr, ptr %27, align 8, !tbaa !21
  call void @free(ptr noundef %28) #15
  %29 = getelementptr inbounds nuw %"class.Gluco2::vec.0", ptr %7, i32 0, i32 0
  store ptr null, ptr %29, align 8, !tbaa !21
  %30 = getelementptr inbounds nuw %"class.Gluco2::vec.0", ptr %7, i32 0, i32 2
  store i32 0, ptr %30, align 4, !tbaa !25
  br label %31

31:                                               ; preds = %26, %22
  br label %32

32:                                               ; preds = %31, %2
  ret void
}

; Function Attrs: inlinehint mustprogress nounwind uwtable
define linkonce_odr noundef i32 @_ZN6Gluco210SimpSolver12solveLimitedEPiibb(ptr noundef nonnull align 8 dereferenceable(1684) %0, ptr noundef %1, i32 noundef %2, i1 noundef zeroext %3, i1 noundef zeroext %4) #4 comdat align 2 {
  %6 = alloca ptr, align 8
  %7 = alloca ptr, align 8
  %8 = alloca i32, align 4
  %9 = alloca i8, align 1
  %10 = alloca i8, align 1
  %11 = alloca i32, align 4
  %12 = alloca %"struct.Gluco2::Lit", align 4
  %13 = alloca %"class.Gluco2::lbool", align 1
  %14 = alloca %"class.Gluco2::lbool", align 1
  %15 = alloca %"class.Gluco2::lbool", align 1
  store ptr %0, ptr %6, align 8, !tbaa !3
  store ptr %1, ptr %7, align 8, !tbaa !10
  store i32 %2, ptr %8, align 4, !tbaa !12
  %16 = zext i1 %3 to i8
  store i8 %16, ptr %9, align 1, !tbaa !67
  %17 = zext i1 %4 to i8
  store i8 %17, ptr %10, align 1, !tbaa !67
  %18 = load ptr, ptr %6, align 8
  %19 = getelementptr inbounds nuw %"class.Gluco2::Solver", ptr %18, i32 0, i32 78
  call void @_ZN6Gluco23vecINS_3LitEE5clearEb(ptr noundef nonnull align 8 dereferenceable(16) %19, i1 noundef zeroext false)
  call void @llvm.lifetime.start.p0(i64 4, ptr %11) #15
  store i32 0, ptr %11, align 4, !tbaa !12
  br label %20

20:                                               ; preds = %34, %5
  %21 = load i32, ptr %11, align 4, !tbaa !12
  %22 = load i32, ptr %8, align 4, !tbaa !12
  %23 = icmp slt i32 %21, %22
  br i1 %23, label %25, label %24

24:                                               ; preds = %20
  call void @llvm.lifetime.end.p0(i64 4, ptr %11) #15
  br label %37

25:                                               ; preds = %20
  %26 = getelementptr inbounds nuw %"class.Gluco2::Solver", ptr %18, i32 0, i32 78
  call void @llvm.lifetime.start.p0(i64 4, ptr %12) #15
  %27 = load ptr, ptr %7, align 8, !tbaa !10
  %28 = load i32, ptr %11, align 4, !tbaa !12
  %29 = sext i32 %28 to i64
  %30 = getelementptr inbounds i32, ptr %27, i64 %29
  %31 = load i32, ptr %30, align 4, !tbaa !12
  %32 = call i32 @_ZN6Gluco25toLitEi(i32 noundef %31)
  %33 = getelementptr inbounds nuw %"struct.Gluco2::Lit", ptr %12, i32 0, i32 0
  store i32 %32, ptr %33, align 4
  call void @_ZN6Gluco23vecINS_3LitEE4pushERKS1_(ptr noundef nonnull align 8 dereferenceable(16) %26, ptr noundef nonnull align 4 dereferenceable(4) %12)
  call void @llvm.lifetime.end.p0(i64 4, ptr %12) #15
  br label %34

34:                                               ; preds = %25
  %35 = load i32, ptr %11, align 4, !tbaa !12
  %36 = add nsw i32 %35, 1
  store i32 %36, ptr %11, align 4, !tbaa !12
  br label %20, !llvm.loop !68

37:                                               ; preds = %24
  call void @llvm.lifetime.start.p0(i64 1, ptr %13) #15
  %38 = load i8, ptr %9, align 1, !tbaa !67, !range !69, !noundef !70
  %39 = trunc i8 %38 to i1
  %40 = load i8, ptr %10, align 1, !tbaa !67, !range !69, !noundef !70
  %41 = trunc i8 %40 to i1
  %42 = call i8 @_ZN6Gluco210SimpSolver6solve_Ebb(ptr noundef nonnull align 8 dereferenceable(1684) %18, i1 noundef zeroext %39, i1 noundef zeroext %41)
  %43 = getelementptr inbounds nuw %"class.Gluco2::lbool", ptr %13, i32 0, i32 0
  store i8 %42, ptr %43, align 1
  call void @_ZN6Gluco25lboolC2Eh(ptr noundef nonnull align 1 dereferenceable(1) %14, i8 noundef zeroext 0)
  %44 = getelementptr inbounds nuw %"class.Gluco2::lbool", ptr %14, i32 0, i32 0
  %45 = load i8, ptr %44, align 1
  %46 = call noundef zeroext i1 @_ZNK6Gluco25lbooleqES0_(ptr noundef nonnull align 1 dereferenceable(1) %13, i8 %45)
  br i1 %46, label %47, label %48

47:                                               ; preds = %37
  br label %53

48:                                               ; preds = %37
  call void @_ZN6Gluco25lboolC2Eh(ptr noundef nonnull align 1 dereferenceable(1) %15, i8 noundef zeroext 1)
  %49 = getelementptr inbounds nuw %"class.Gluco2::lbool", ptr %15, i32 0, i32 0
  %50 = load i8, ptr %49, align 1
  %51 = call noundef zeroext i1 @_ZNK6Gluco25lbooleqES0_(ptr noundef nonnull align 1 dereferenceable(1) %13, i8 %50)
  %52 = select i1 %51, i32 -1, i32 0
  br label %53

53:                                               ; preds = %48, %47
  %54 = phi i32 [ 1, %47 ], [ %52, %48 ]
  call void @llvm.lifetime.end.p0(i64 1, ptr %13) #15
  ret i32 %54
}

; Function Attrs: mustprogress nounwind uwtable
define noundef i32 @_Z21glucose2_solver_solvePN6Gluco210SimpSolverEPii(ptr noundef %0, ptr noundef %1, i32 noundef %2) #0 {
  %4 = alloca ptr, align 8
  %5 = alloca ptr, align 8
  %6 = alloca i32, align 4
  store ptr %0, ptr %4, align 8, !tbaa !3
  store ptr %1, ptr %5, align 8, !tbaa !10
  store i32 %2, ptr %6, align 4, !tbaa !12
  %7 = load ptr, ptr %4, align 8, !tbaa !3
  %8 = load ptr, ptr %5, align 8, !tbaa !10
  %9 = load i32, ptr %6, align 4, !tbaa !12
  %10 = call noundef i32 @_ZN6Gluco210SimpSolver12solveLimitedEPiibb(ptr noundef nonnull align 8 dereferenceable(1684) %7, ptr noundef %8, i32 noundef %9, i1 noundef zeroext false, i1 noundef zeroext false)
  ret i32 %10
}