; Function Attrs: mustprogress nounwind uwtable
define noundef range(i32 -1, 2) i32 @_Z21glucose2_solver_solvePN6Gluco210SimpSolverEPii(ptr noundef %0, ptr noundef readonly captures(none) %1, i32 noundef %2) local_unnamed_addr #0 {
  %4 = getelementptr inbounds nuw i8, ptr %0, i64 760
  %5 = load ptr, ptr %4, align 8, !tbaa !13
  %.not.i.i = icmp eq ptr %5, null
  br i1 %.not.i.i, label %_ZN6Gluco23vecINS_3LitEE5clearEb.exit.i, label %.preheader.i.i

.preheader.i.i:                                   ; preds = %3
  %6 = getelementptr inbounds nuw i8, ptr %0, i64 768
  store i32 0, ptr %6, align 8, !tbaa !16
  br label %_ZN6Gluco23vecINS_3LitEE5clearEb.exit.i

_ZN6Gluco23vecINS_3LitEE5clearEb.exit.i:          ; preds = %.preheader.i.i, %3
  %7 = icmp sgt i32 %2, 0
  br i1 %7, label %.lr.ph.i, label %_ZN6Gluco210SimpSolver12solveLimitedEPiibb.exit

.lr.ph.i:                                         ; preds = %_ZN6Gluco23vecINS_3LitEE5clearEb.exit.i
  %8 = getelementptr inbounds nuw i8, ptr %0, i64 768
  %9 = getelementptr inbounds nuw i8, ptr %0, i64 772
  %wide.trip.count.i = zext nneg i32 %2 to i64
  br label %10

10:                                               ; preds = %_ZN6Gluco23vecINS_3LitEE4pushERKS1_.exit.i, %.lr.ph.i
  %11 = phi ptr [ %5, %.lr.ph.i ], [ %.pre.i14.i, %_ZN6Gluco23vecINS_3LitEE4pushERKS1_.exit.i ]
  %indvars.iv.i = phi i64 [ 0, %.lr.ph.i ], [ %indvars.iv.next.i, %_ZN6Gluco23vecINS_3LitEE4pushERKS1_.exit.i ]
  %12 = getelementptr inbounds nuw i32, ptr %1, i64 %indvars.iv.i
  %13 = load i32, ptr %12, align 4, !tbaa !6
  %14 = load i32, ptr %8, align 8, !tbaa !16
  %15 = load i32, ptr %9, align 4, !tbaa !19
  %16 = icmp eq i32 %14, %15
  br i1 %16, label %17, label %_ZN6Gluco23vecINS_3LitEE4pushERKS1_.exit.i

17:                                               ; preds = %10
  %18 = ashr i32 %14, 1
  %19 = and i32 %18, -2
  %20 = tail call i32 @llvm.smax.i32(i32 %19, i32 0)
  %21 = add nuw nsw i32 %20, 2
  %22 = sub nsw i32 2147483647, %14
  %23 = icmp samesign ugt i32 %21, %22
  br i1 %23, label %.loopexit.i, label %24

24:                                               ; preds = %17
  %25 = add nsw i32 %21, %14
  store i32 %25, ptr %9, align 4, !tbaa !19
  %26 = sext i32 %25 to i64
  %27 = shl nsw i64 %26, 2
  %28 = tail call ptr @realloc(ptr noundef %11, i64 noundef %27) #31
  store ptr %28, ptr %4, align 8, !tbaa !13
  %29 = icmp eq ptr %28, null
  br i1 %29, label %30, label %._ZN6Gluco23vecINS_3LitEE4pushERKS1_.exit_crit_edge.i

._ZN6Gluco23vecINS_3LitEE4pushERKS1_.exit_crit_edge.i: ; preds = %24
  %.pre.i = load i32, ptr %8, align 8, !tbaa !16
  br label %_ZN6Gluco23vecINS_3LitEE4pushERKS1_.exit.i

30:                                               ; preds = %24
  %31 = tail call ptr @__errno_location() #32
  %32 = load i32, ptr %31, align 4, !tbaa !6
  %33 = icmp eq i32 %32, 12
  tail call void @llvm.assume(i1 %33)
  br label %.loopexit.i

.loopexit.i:                                      ; preds = %17, %30
  tail call fastcc void @_ZN6Gluco2L19fatal_out_of_memoryEv()
  unreachable

_ZN6Gluco23vecINS_3LitEE4pushERKS1_.exit.i:       ; preds = %._ZN6Gluco23vecINS_3LitEE4pushERKS1_.exit_crit_edge.i, %10
  %34 = phi i32 [ %.pre.i, %._ZN6Gluco23vecINS_3LitEE4pushERKS1_.exit_crit_edge.i ], [ %14, %10 ]
  %.pre.i14.i = phi ptr [ %28, %._ZN6Gluco23vecINS_3LitEE4pushERKS1_.exit_crit_edge.i ], [ %11, %10 ]
  %35 = add nsw i32 %34, 1
  store i32 %35, ptr %8, align 8, !tbaa !16
  %36 = sext i32 %34 to i64
  %37 = getelementptr inbounds %"struct.Gluco2::Lit", ptr %.pre.i14.i, i64 %36
  store i32 %13, ptr %37, align 4, !tbaa !6
  %indvars.iv.next.i = add nuw nsw i64 %indvars.iv.i, 1
  %exitcond.not.i = icmp eq i64 %indvars.iv.next.i, %wide.trip.count.i
  br i1 %exitcond.not.i, label %_ZN6Gluco210SimpSolver12solveLimitedEPiibb.exit, label %10, !llvm.loop !57

_ZN6Gluco210SimpSolver12solveLimitedEPiibb.exit:  ; preds = %_ZN6Gluco23vecINS_3LitEE4pushERKS1_.exit.i, %_ZN6Gluco23vecINS_3LitEE5clearEb.exit.i
  %38 = tail call i8 @_ZN6Gluco210SimpSolver6solve_Ebb(ptr noundef nonnull align 8 dereferenceable(1684) %0, i1 noundef zeroext false, i1 noundef zeroext false) #30
  %39 = icmp eq i8 %38, 0
  %40 = icmp eq i8 %38, 1
  %41 = sext i1 %40 to i32
  %42 = select i1 %39, i32 1, i32 %41
  ret i32 %42
}